; Function Attrs: mustprogress uwtable
define internal void @_ZNK2cv4impl12_GLOBAL__N_120CvtColorLoop_InvokerINS_3hal12cpu_baseline12_GLOBAL__N_18Gray2RGBIhEEEclERKNS_5RangeE(ptr nocapture noundef nonnull readonly align 8 dereferenceable(56) %0, ptr nocapture noundef nonnull readonly align 4 dereferenceable(8) %1) unnamed_addr #0 align 2 personality ptr @__gxx_personality_v0 {
  %3 = alloca %"class.cv::utils::trace::details::Region", align 8
  call void @_ZN2cv5utils5trace7details6RegionC1ERKNS3_21LocationStaticStorageE(ptr noundef nonnull align 8 dereferenceable(12) %3, ptr noundef nonnull align 8 dereferenceable(32) @_ZZNK2cv4impl12_GLOBAL__N_120CvtColorLoop_InvokerINS_3hal12cpu_baseline12_GLOBAL__N_18Gray2RGBIhEEEclERKNS_5RangeEE25__cv_trace_location_fn146)
  %4 = load i32, ptr %1, align 4
  %5 = getelementptr inbounds i8, ptr %0, i64 16
  %6 = getelementptr inbounds i8, ptr %0, i64 32
  %7 = getelementptr inbounds i8, ptr %1, i64 4
  %8 = load i32, ptr %7, align 4
  %9 = icmp slt i32 %4, %8
  br i1 %9, label %.lr.ph, label %._crit_edge

.lr.ph:                                           ; preds = %2
  %10 = getelementptr inbounds i8, ptr %0, i64 40
  %11 = getelementptr inbounds i8, ptr %0, i64 48
  %12 = load i32, ptr %10, align 8
  %13 = icmp sgt i32 %12, 0
  br i1 %13, label %.lr.ph.split.preheader, label %._crit_edge

.lr.ph.split.preheader:                           ; preds = %.lr.ph
  %14 = getelementptr inbounds i8, ptr %0, i64 24
  %15 = load ptr, ptr %14, align 8
  %16 = load i64, ptr %6, align 8
  %17 = sext i32 %4 to i64
  %18 = mul i64 %16, %17
  %19 = getelementptr inbounds i8, ptr %15, i64 %18
  %20 = getelementptr inbounds i8, ptr %0, i64 8
  %21 = load ptr, ptr %20, align 8
  %22 = load i64, ptr %5, align 8
  %23 = mul i64 %22, %17
  %24 = getelementptr inbounds i8, ptr %21, i64 %23
  br label %.lr.ph.split

.lr.ph.split:                                     ; preds = %.lr.ph.split.preheader, %_ZNK2cv3hal12cpu_baseline12_GLOBAL__N_18Gray2RGBIhEclEPKhPhi.exit
  %.015 = phi i32 [ %43, %_ZNK2cv3hal12cpu_baseline12_GLOBAL__N_18Gray2RGBIhEclEPKhPhi.exit ], [ %4, %.lr.ph.split.preheader ]
  %.01014 = phi ptr [ %47, %_ZNK2cv3hal12cpu_baseline12_GLOBAL__N_18Gray2RGBIhEclEPKhPhi.exit ], [ %19, %.lr.ph.split.preheader ]
  %.01113 = phi ptr [ %45, %_ZNK2cv3hal12cpu_baseline12_GLOBAL__N_18Gray2RGBIhEclEPKhPhi.exit ], [ %24, %.lr.ph.split.preheader ]
  %25 = load i32, ptr %10, align 8
  %26 = icmp sgt i32 %25, 0
  br i1 %26, label %.lr.ph.i, label %_ZNK2cv3hal12cpu_baseline12_GLOBAL__N_18Gray2RGBIhEclEPKhPhi.exit

.lr.ph.i:                                         ; preds = %.lr.ph.split
  %27 = load ptr, ptr %11, align 8
  %.val = load i32, ptr %27, align 4
  %28 = icmp eq i32 %.val, 4
  %29 = sext i32 %.val to i64
  br i1 %28, label %.lr.ph.split.us.i, label %.lr.ph.split.i

.lr.ph.split.us.i:                                ; preds = %.lr.ph.i, %.lr.ph.split.us.i
  %.03.us.i = phi ptr [ %35, %.lr.ph.split.us.i ], [ %.01113, %.lr.ph.i ]
  %.0132.us.i = phi i32 [ %34, %.lr.ph.split.us.i ], [ 0, %.lr.ph.i ]
  %.0141.us.i = phi ptr [ %36, %.lr.ph.split.us.i ], [ %.01014, %.lr.ph.i ]
  %30 = load i8, ptr %.03.us.i, align 1
  %31 = getelementptr inbounds i8, ptr %.0141.us.i, i64 2
  store i8 %30, ptr %31, align 1
  %32 = getelementptr inbounds i8, ptr %.0141.us.i, i64 1
  store i8 %30, ptr %32, align 1
  store i8 %30, ptr %.0141.us.i, align 1
  %33 = getelementptr inbounds i8, ptr %.0141.us.i, i64 3
  store i8 -1, ptr %33, align 1
  %34 = add nuw nsw i32 %.0132.us.i, 1
  %35 = getelementptr inbounds i8, ptr %.03.us.i, i64 1
  %36 = getelementptr inbounds i8, ptr %.0141.us.i, i64 %29
  %exitcond5.not.i = icmp eq i32 %34, %25
  br i1 %exitcond5.not.i, label %_ZNK2cv3hal12cpu_baseline12_GLOBAL__N_18Gray2RGBIhEclEPKhPhi.exit, label %.lr.ph.split.us.i, !llvm.loop !72

.lr.ph.split.i:                                   ; preds = %.lr.ph.i, %.lr.ph.split.i
  %.03.i = phi ptr [ %41, %.lr.ph.split.i ], [ %.01113, %.lr.ph.i ]
  %.0132.i = phi i32 [ %40, %.lr.ph.split.i ], [ 0, %.lr.ph.i ]
  %.0141.i = phi ptr [ %42, %.lr.ph.split.i ], [ %.01014, %.lr.ph.i ]
  %37 = load i8, ptr %.03.i, align 1
  %38 = getelementptr inbounds i8, ptr %.0141.i, i64 2
  store i8 %37, ptr %38, align 1
  %39 = getelementptr inbounds i8, ptr %.0141.i, i64 1
  store i8 %37, ptr %39, align 1
  store i8 %37, ptr %.0141.i, align 1
  %40 = add nuw nsw i32 %.0132.i, 1
  %41 = getelementptr inbounds i8, ptr %.03.i, i64 1
  %42 = getelementptr inbounds i8, ptr %.0141.i, i64 %29
  %exitcond.not.i = icmp eq i32 %40, %25
  br i1 %exitcond.not.i, label %_ZNK2cv3hal12cpu_baseline12_GLOBAL__N_18Gray2RGBIhEclEPKhPhi.exit, label %.lr.ph.split.i, !llvm.loop !72

_ZNK2cv3hal12cpu_baseline12_GLOBAL__N_18Gray2RGBIhEclEPKhPhi.exit: ; preds = %.lr.ph.split.i, %.lr.ph.split.us.i, %.lr.ph.split
  %43 = add nsw i32 %.015, 1
  %44 = load i64, ptr %5, align 8
  %45 = getelementptr inbounds i8, ptr %.01113, i64 %44
  %46 = load i64, ptr %6, align 8
  %47 = getelementptr inbounds i8, ptr %.01014, i64 %46
  %48 = load i32, ptr %7, align 4
  %49 = icmp slt i32 %43, %48
  br i1 %49, label %.lr.ph.split, label %._crit_edge, !llvm.loop !73

._crit_edge:                                      ; preds = %_ZNK2cv3hal12cpu_baseline12_GLOBAL__N_18Gray2RGBIhEclEPKhPhi.exit, %.lr.ph, %2
  %50 = getelementptr inbounds i8, ptr %3, i64 8
  %51 = load i32, ptr %50, align 8
  %.not.i = icmp eq i32 %51, 0
  br i1 %.not.i, label %_ZN2cv5utils5trace7details6RegionD2Ev.exit, label %52

52:                                               ; preds = %._crit_edge
  invoke void @_ZN2cv5utils5trace7details6Region7destroyEv(ptr noundef nonnull align 8 dereferenceable(12) %3)
          to label %_ZN2cv5utils5trace7details6RegionD2Ev.exit unwind label %53

53:                                               ; preds = %52
  %54 = landingpad { ptr, i32 }
          catch ptr null
  %55 = extractvalue { ptr, i32 } %54, 0
  call void @__clang_call_terminate(ptr %55) #13
  unreachable

_ZN2cv5utils5trace7details6RegionD2Ev.exit:       ; preds = %._crit_edge, %52
  ret void
}